target datalayout = "e-m:e-p270:32:32-p271:32:32-p272:64:64-i64:64-i128:128-f80:128-n8:16:32:64-S128"
target triple = "x86_64-pc-linux-gnu"

%struct.SDL_HIDAPI_Device = type { ptr, ptr, ptr, ptr, i16, i16, i16, ptr, %struct.SDL_GUID, i32, i32, i32, i32, i16, i16, i8, i32, i32, i32, ptr, ptr, ptr, ptr, %struct.SDL_AtomicInt, i32, ptr, i8, i8, i8, ptr, i32, ptr, ptr }
%struct.SDL_GUID = type { [16 x i8] }
%struct.SDL_AtomicInt = type { i32 }
%struct.ShieldCommandReport_t = type { i8, i8, i8, [30 x i8] }
%struct.SDL_DriverShield_Context = type { i8, i8, i8, i8, i8, i64, i8, i8, i8, i8, i64, [64 x i8] }
%struct.SDL_Joystick = type { i32, ptr, ptr, ptr, %struct.SDL_GUID, i16, i64, i8, i8, i32, ptr, i32, ptr, i32, ptr, i32, ptr, i32, ptr, i32, i32, ptr, i16, i16, i64, i64, i16, i16, i64, i64, i8, i8, i8, i64, i8, i32, i32, i32, i8, i32, ptr, i32, ptr, [3 x [3 x float]], i64, ptr, ptr, i32, i32, ptr }

@.str.3 = private unnamed_addr constant [37 x i8] c"Command data exceeds HID report size\00", align 1
@.str.4 = private unnamed_addr constant [29 x i8] c"Couldn't send command packet\00", align 1

; Function Attrs: nounwind uwtable
define internal zeroext i1 @HIDAPI_DriverShield_SendCommand(ptr noundef %0, i8 noundef zeroext %1, ptr noundef %2, i32 noundef %3) #0 {
  %5 = alloca i1, align 1
  %6 = alloca ptr, align 8
  %7 = alloca i8, align 1
  %8 = alloca ptr, align 8
  %9 = alloca i32, align 4
  %10 = alloca ptr, align 8
  %11 = alloca %struct.ShieldCommandReport_t, align 1
  %12 = alloca i32, align 4
  store ptr %0, ptr %6, align 8
  store i8 %1, ptr %7, align 1
  store ptr %2, ptr %8, align 8
  store i32 %3, ptr %9, align 4
  call void @llvm.lifetime.start.p0(i64 8, ptr %10) #6
  %13 = load ptr, ptr %6, align 8
  %14 = getelementptr inbounds nuw %struct.SDL_HIDAPI_Device, ptr %13, i32 0, i32 20
  %15 = load ptr, ptr %14, align 8
  store ptr %15, ptr %10, align 8
  call void @llvm.lifetime.start.p0(i64 33, ptr %11) #6
  %16 = load i32, ptr %9, align 4
  %17 = sext i32 %16 to i64
  %18 = icmp ugt i64 %17, 30
  br i1 %18, label %19, label %21

19:                                               ; preds = %4
  %20 = call zeroext i1 (ptr, ...) @SDL_SetError_REAL(ptr noundef @.str.3)
  store i1 %20, ptr %5, align 1
  store i32 1, ptr %12, align 4
  br label %61

21:                                               ; preds = %4
  %22 = call zeroext i1 @SDL_HIDAPI_LockRumble()
  br i1 %22, label %24, label %23

23:                                               ; preds = %21
  store i1 false, ptr %5, align 1
  store i32 1, ptr %12, align 4
  br label %61

24:                                               ; preds = %21
  %25 = getelementptr inbounds nuw %struct.ShieldCommandReport_t, ptr %11, i32 0, i32 0
  store i8 4, ptr %25, align 1
  %26 = load i8, ptr %7, align 1
  %27 = getelementptr inbounds nuw %struct.ShieldCommandReport_t, ptr %11, i32 0, i32 1
  store i8 %26, ptr %27, align 1
  %28 = load ptr, ptr %10, align 8
  %29 = getelementptr inbounds nuw %struct.SDL_DriverShield_Context, ptr %28, i32 0, i32 0
  %30 = load i8, ptr %29, align 8
  %31 = add i8 %30, 1
  store i8 %31, ptr %29, align 8
  %32 = getelementptr inbounds nuw %struct.ShieldCommandReport_t, ptr %11, i32 0, i32 2
  store i8 %30, ptr %32, align 1
  %33 = load ptr, ptr %8, align 8
  %34 = icmp ne ptr %33, null
  br i1 %34, label %35, label %41

35:                                               ; preds = %24
  %36 = getelementptr inbounds nuw %struct.ShieldCommandReport_t, ptr %11, i32 0, i32 3
  %37 = getelementptr inbounds [30 x i8], ptr %36, i64 0, i64 0
  %38 = load ptr, ptr %8, align 8
  %39 = load i32, ptr %9, align 4
  %40 = sext i32 %39 to i64
  call void @llvm.memcpy.p0.p0.i64(ptr align 1 %37, ptr align 1 %38, i64 %40, i1 false)
  br label %41

41:                                               ; preds = %35, %24
  %42 = load i32, ptr %9, align 4
  %43 = sext i32 %42 to i64
  %44 = icmp ne i64 %43, 30
  br i1 %44, label %45, label %53

45:                                               ; preds = %41
  %46 = getelementptr inbounds nuw %struct.ShieldCommandReport_t, ptr %11, i32 0, i32 3
  %47 = load i32, ptr %9, align 4
  %48 = sext i32 %47 to i64
  %49 = getelementptr inbounds [30 x i8], ptr %46, i64 0, i64 %48
  %50 = load i32, ptr %9, align 4
  %51 = sext i32 %50 to i64
  %52 = sub i64 30, %51
  call void @llvm.memset.p0.i64(ptr align 1 %49, i8 0, i64 %52, i1 false)
  br label %53

53:                                               ; preds = %45, %41
  %54 = load ptr, ptr %6, align 8
  %55 = call i32 @SDL_HIDAPI_SendRumbleAndUnlock(ptr noundef %54, ptr noundef %11, i32 noundef 33)
  %56 = sext i32 %55 to i64
  %57 = icmp ne i64 %56, 33
  br i1 %57, label %58, label %60

58:                                               ; preds = %53
  %59 = call zeroext i1 (ptr, ...) @SDL_SetError_REAL(ptr noundef @.str.4)
  store i1 %59, ptr %5, align 1
  store i32 1, ptr %12, align 4
  br label %61

60:                                               ; preds = %53
  store i1 true, ptr %5, align 1
  store i32 1, ptr %12, align 4
  br label %61

61:                                               ; preds = %60, %58, %23, %19
  call void @llvm.lifetime.end.p0(i64 33, ptr %11) #6
  call void @llvm.lifetime.end.p0(i64 8, ptr %10) #6
  %62 = load i1, ptr %5, align 1
  ret i1 %62
}

; Function Attrs: nounwind uwtable
define internal zeroext i1 @HIDAPI_DriverShield_OpenJoystick(ptr noundef %0, ptr noundef %1) #0 {
  %3 = alloca ptr, align 8
  %4 = alloca ptr, align 8
  %5 = alloca ptr, align 8
  store ptr %0, ptr %3, align 8
  store ptr %1, ptr %4, align 8
  call void @llvm.lifetime.start.p0(i64 8, ptr %5) #6
  %6 = load ptr, ptr %3, align 8
  %7 = getelementptr inbounds nuw %struct.SDL_HIDAPI_Device, ptr %6, i32 0, i32 20
  %8 = load ptr, ptr %7, align 8
  store ptr %8, ptr %5, align 8
  call void @SDL_AssertJoysticksLocked()
  %9 = load ptr, ptr %5, align 8
  %10 = getelementptr inbounds nuw %struct.SDL_DriverShield_Context, ptr %9, i32 0, i32 6
  store i8 0, ptr %10, align 8
  %11 = load ptr, ptr %5, align 8
  %12 = getelementptr inbounds nuw %struct.SDL_DriverShield_Context, ptr %11, i32 0, i32 7
  store i8 0, ptr %12, align 1
  %13 = load ptr, ptr %5, align 8
  %14 = getelementptr inbounds nuw %struct.SDL_DriverShield_Context, ptr %13, i32 0, i32 8
  store i8 0, ptr %14, align 2
  %15 = load ptr, ptr %5, align 8
  %16 = getelementptr inbounds nuw %struct.SDL_DriverShield_Context, ptr %15, i32 0, i32 9
  store i8 0, ptr %16, align 1
  %17 = load ptr, ptr %5, align 8
  %18 = getelementptr inbounds nuw %struct.SDL_DriverShield_Context, ptr %17, i32 0, i32 10
  store i64 0, ptr %18, align 8
  %19 = load ptr, ptr %5, align 8
  %20 = getelementptr inbounds nuw %struct.SDL_DriverShield_Context, ptr %19, i32 0, i32 11
  %21 = getelementptr inbounds [64 x i8], ptr %20, i64 0, i64 0
  call void @llvm.memset.p0.i64(ptr align 8 %21, i8 0, i64 64, i1 false)
  %22 = load ptr, ptr %3, align 8
  %23 = getelementptr inbounds nuw %struct.SDL_HIDAPI_Device, ptr %22, i32 0, i32 5
  %24 = load i16, ptr %23, align 2
  %25 = zext i16 %24 to i32
  %26 = icmp eq i32 %25, 29200
  br i1 %26, label %27, label %35

27:                                               ; preds = %2
  %28 = load ptr, ptr %4, align 8
  %29 = getelementptr inbounds nuw %struct.SDL_Joystick, ptr %28, i32 0, i32 15
  store i32 15, ptr %29, align 8
  %30 = load ptr, ptr %4, align 8
  %31 = getelementptr inbounds nuw %struct.SDL_Joystick, ptr %30, i32 0, i32 9
  store i32 6, ptr %31, align 4
  %32 = load ptr, ptr %4, align 8
  %33 = getelementptr inbounds nuw %struct.SDL_Joystick, ptr %32, i32 0, i32 13
  store i32 1, ptr %33, align 8
  %34 = load ptr, ptr %4, align 8
  call void @SDL_PrivateJoystickAddTouchpad(ptr noundef %34, i32 noundef 1)
  br label %42

35:                                               ; preds = %2
  %36 = load ptr, ptr %4, align 8
  %37 = getelementptr inbounds nuw %struct.SDL_Joystick, ptr %36, i32 0, i32 15
  store i32 12, ptr %37, align 8
  %38 = load ptr, ptr %4, align 8
  %39 = getelementptr inbounds nuw %struct.SDL_Joystick, ptr %38, i32 0, i32 9
  store i32 6, ptr %39, align 4
  %40 = load ptr, ptr %4, align 8
  %41 = getelementptr inbounds nuw %struct.SDL_Joystick, ptr %40, i32 0, i32 13
  store i32 1, ptr %41, align 8
  br label %42

42:                                               ; preds = %35, %27
  %43 = call i64 @SDL_GetTicks_REAL()
  %44 = load ptr, ptr %5, align 8
  %45 = getelementptr inbounds nuw %struct.SDL_DriverShield_Context, ptr %44, i32 0, i32 5
  store i64 %43, ptr %45, align 8
  %46 = load ptr, ptr %3, align 8
  %47 = call zeroext i1 @HIDAPI_DriverShield_SendCommand(ptr noundef %46, i8 noundef zeroext 58, ptr noundef null, i32 noundef 0)
  %48 = load ptr, ptr %3, align 8
  %49 = call zeroext i1 @HIDAPI_DriverShield_SendCommand(ptr noundef %48, i8 noundef zeroext 7, ptr noundef null, i32 noundef 0)
  call void @llvm.lifetime.end.p0(i64 8, ptr %5) #6
  ret i1 true
}