; Function Attrs: nounwind uwtable
define internal noundef zeroext i1 @HIDAPI_DriverShield_OpenJoystick(ptr noundef %0, ptr noundef initializes((68, 72), (96, 100), (112, 116)) %1) #0 {
  %3 = alloca %struct.ShieldCommandReport_t, align 1
  %4 = alloca %struct.ShieldCommandReport_t, align 1
  %5 = getelementptr inbounds nuw i8, ptr %0, i64 112
  %6 = load ptr, ptr %5, align 8
  tail call void @SDL_AssertJoysticksLocked() #8
  %7 = getelementptr inbounds nuw i8, ptr %6, i64 16
  %8 = getelementptr inbounds nuw i8, ptr %6, i64 24
  %9 = getelementptr inbounds nuw i8, ptr %0, i64 34
  store i32 0, ptr %7, align 8
  tail call void @llvm.memset.p0.i64(ptr noundef nonnull align 8 dereferenceable(72) %8, i8 0, i64 72, i1 false)
  %10 = load i16, ptr %9, align 2
  %11 = icmp eq i16 %10, 29200
  %12 = getelementptr inbounds nuw i8, ptr %1, i64 112
  %13 = getelementptr inbounds nuw i8, ptr %1, i64 68
  %14 = getelementptr inbounds nuw i8, ptr %1, i64 96
  br i1 %11, label %15, label %16

15:                                               ; preds = %2
  store i32 15, ptr %12, align 8
  store i32 6, ptr %13, align 4
  store i32 1, ptr %14, align 8
  tail call void @SDL_PrivateJoystickAddTouchpad(ptr noundef %1, i32 noundef 1) #8
  br label %17

16:                                               ; preds = %2
  store i32 12, ptr %12, align 8
  store i32 6, ptr %13, align 4
  store i32 1, ptr %14, align 8
  br label %17

17:                                               ; preds = %16, %15
  %18 = tail call i64 @SDL_GetTicks_REAL() #8
  %19 = getelementptr inbounds nuw i8, ptr %6, i64 8
  store i64 %18, ptr %19, align 8
  %20 = load ptr, ptr %5, align 8
  call void @llvm.lifetime.start.p0(i64 33, ptr nonnull %4) #8
  %21 = tail call zeroext i1 @SDL_HIDAPI_LockRumble() #8
  br i1 %21, label %22, label %HIDAPI_DriverShield_SendCommand.exit

22:                                               ; preds = %17
  store i8 4, ptr %4, align 1
  %23 = getelementptr inbounds nuw i8, ptr %4, i64 1
  store i8 58, ptr %23, align 1
  %24 = load i8, ptr %20, align 8
  %25 = add i8 %24, 1
  store i8 %25, ptr %20, align 8
  %26 = getelementptr inbounds nuw i8, ptr %4, i64 2
  store i8 %24, ptr %26, align 1
  %27 = getelementptr inbounds nuw i8, ptr %4, i64 3
  call void @llvm.memset.p0.i64(ptr noundef nonnull align 1 dereferenceable(30) %27, i8 0, i64 30, i1 false)
  %28 = call i32 @SDL_HIDAPI_SendRumbleAndUnlock(ptr noundef nonnull %0, ptr noundef nonnull %4, i32 noundef 33) #8
  %.not14.i = icmp eq i32 %28, 33
  br i1 %.not14.i, label %HIDAPI_DriverShield_SendCommand.exit, label %29

29:                                               ; preds = %22
  %30 = call zeroext i1 (ptr, ...) @SDL_SetError_REAL(ptr noundef nonnull @.str.4) #8
  br label %HIDAPI_DriverShield_SendCommand.exit

HIDAPI_DriverShield_SendCommand.exit:             ; preds = %17, %22, %29
  call void @llvm.lifetime.end.p0(i64 33, ptr nonnull %4) #8
  %31 = load ptr, ptr %5, align 8
  call void @llvm.lifetime.start.p0(i64 33, ptr nonnull %3) #8
  %32 = call zeroext i1 @SDL_HIDAPI_LockRumble() #8
  br i1 %32, label %33, label %HIDAPI_DriverShield_SendCommand.exit20

33:                                               ; preds = %HIDAPI_DriverShield_SendCommand.exit
  store i8 4, ptr %3, align 1
  %34 = getelementptr inbounds nuw i8, ptr %3, i64 1
  store i8 7, ptr %34, align 1
  %35 = load i8, ptr %31, align 8
  %36 = add i8 %35, 1
  store i8 %36, ptr %31, align 8
  %37 = getelementptr inbounds nuw i8, ptr %3, i64 2
  store i8 %35, ptr %37, align 1
  %38 = getelementptr inbounds nuw i8, ptr %3, i64 3
  call void @llvm.memset.p0.i64(ptr noundef nonnull align 1 dereferenceable(30) %38, i8 0, i64 30, i1 false)
  %39 = call i32 @SDL_HIDAPI_SendRumbleAndUnlock(ptr noundef nonnull %0, ptr noundef nonnull %3, i32 noundef 33) #8
  %.not14.i19 = icmp eq i32 %39, 33
  br i1 %.not14.i19, label %HIDAPI_DriverShield_SendCommand.exit20, label %40

40:                                               ; preds = %33
  %41 = call zeroext i1 (ptr, ...) @SDL_SetError_REAL(ptr noundef nonnull @.str.4) #8
  br label %HIDAPI_DriverShield_SendCommand.exit20

HIDAPI_DriverShield_SendCommand.exit20:           ; preds = %HIDAPI_DriverShield_SendCommand.exit, %33, %40
  call void @llvm.lifetime.end.p0(i64 33, ptr nonnull %3) #8
  ret i1 true
}